Certificate:
    Data:
        Version: 3 (0x2)
        Serial Number: 1853 (0x73d)
    Signature Algorithm: ecdsa-with-SHA384
        Issuer: O=Beijing VRV Software Corporation Limited., OU=Mobile Interconnection Center, CN=VRV ec-ssl CA - G1
        Validity
            Not Before: Sep  6 09:14:38 2018 GMT
            Not After : Sep  3 09:14:38 2028 GMT
        Subject: C=CN, ST=Beijing, O=Beijing VRV Software Corporation Limited., OU=/it?c=linkdood, CN=linkdood\xE6\xA0\x87\xE5\x87\x86 \xE7\x89\x88
        Subject Public Key Info:
            Public Key Algorithm: id-ecPublicKey
                Public-Key: (256 bit)
                pub:
                    04:b2:dc:01:c1:88:e0:dc:2c:d5:07:78:5a:7c:b5:
                    d5:d2:1b:3f:2b:2b:b0:10:0f:f5:3a:18:5c:89:34:
                    8f:16:1f:d4:84:b4:a0:db:6c:59:f5:a3:33:7c:6a:
                    c0:22:91:f1:cd:27:be:d6:6f:a4:5e:a4:24:e9:04:
                    40:5f:9e:56:99
                ASN1 OID: prime256v1
                NIST CURVE: P-256
        X509v3 extensions:
            X509v3 Basic Constraints: 
                CA:FALSE
            X509v3 Key Usage: 
                Digital Signature, Non Repudiation, Key Encipherment
            1.2.156.300352.101.5: 
                .(Beijing VRV Software Corporation Limited
            1.2.156.300352.101.4: 
                .&com.vrv.im,com.vrv.emm,im.linkdood.com
            1.2.156.300352.101.6: 
                .;9B:D9:09:F3:A7:01:55:79:AD:26:BA:39:5F:93:6F:32:1B:17:B8:D1
            1.2.156.300352.101.3: 
                ...cn.vrv.im-inhouse,cn.vrv.im,com.vrv.emm,com.Malaysia.Linkdood,cn.vrv.im-inhouse.LinkDDExtension,cn.vrv.im.Extension,com.vrv.emm.Extenstion,com.Malaysia.Linkdood.Extension
            1.2.156.300352.101.1: 
                ..linkdood
            1.2.156.300352.101.2: 
                .)Beijing VRV Software Corporation Limited.
    Signature Algorithm: ecdsa-with-SHA384
         30:46:02:21:00:be:ba:1a:53:6f:80:cc:58:35:e6:43:79:7a:
         43:7f:e9:2e:93:5e:0f:85:49:06:0a:32:1e:52:cc:e6:4e:62:
         d7:02:21:00:92:0b:64:1f:0f:bb:bd:e6:51:90:5e:d4:48:f7:
         d2:34:d8:19:b7:06:31:20:5d:ae:d6:6f:11:93:d6:0e:7a:91
-----BEGIN CERTIFICATE-----
MIID2TCCA36gAwIBAgICBz0wCgYIKoZIzj0EAwMweTEyMDAGA1UECgwpQmVpamlu
ZyBWUlYgU29mdHdhcmUgQ29ycG9yYXRpb24gTGltaXRlZC4xJjAkBgNVBAsMHU1v
YmlsZSBJbnRlcmNvbm5lY3Rpb24gQ2VudGVyMRswGQYDVQQDDBJWUlYgZWMtc3Ns
IENBIC0gRzEwHhcNMTgwOTA2MDkxNDM4WhcNMjgwOTAzMDkxNDM4WjCBiTELMAkG
A1UEBhMCQ04xEDAOBgNVBAgMB0JlaWppbmcxMjAwBgNVBAoMKUJlaWppbmcgVlJW
IFNvZnR3YXJlIENvcnBvcmF0aW9uIExpbWl0ZWQuMRcwFQYDVQQLDA4vaXQ/Yz1s
aW5rZG9vZDEbMBkGA1UEAwwSbGlua2Rvb2TmoIflh4Yg54mIMFkwEwYHKoZIzj0C
AQYIKoZIzj0DAQcDQgAEstwBwYjg3CzVB3hafLXV0hs/KyuwEA/1OhhciTSPFh/U
hLSg22xZ9aMzfGrAIpHxzSe+1m+kXqQk6QRAX55WmaOCAeMwggHfMAkGA1UdEwQC
MAAwCwYDVR0PBAQDAgXgMDYGCCqBHJKqQGUFBCoMKEJlaWppbmcgVlJWIFNvZnR3
YXJlIENvcnBvcmF0aW9uIExpbWl0ZWQwNAYIKoEckqpAZQQEKAwmY29tLnZydi5p
bSxjb20udnJ2LmVtbSxpbS5saW5rZG9vZC5jb20wSQYIKoEckqpAZQYEPQw7OUI6
RDk6MDk6RjM6QTc6MDE6NTU6Nzk6QUQ6MjY6QkE6Mzk6NUY6OTM6NkY6MzI6MUI6
MTc6Qjg6RDEwgboGCCqBHJKqQGUDBIGtDIGqY24udnJ2LmltLWluaG91c2UsY24u
dnJ2LmltLGNvbS52cnYuZW1tLGNvbS5NYWxheXNpYS5MaW5rZG9vZCxjbi52cnYu
aW0taW5ob3VzZS5MaW5rRERFeHRlbnNpb24sY24udnJ2LmltLkV4dGVuc2lvbixj
b20udnJ2LmVtbS5FeHRlbnN0aW9uLGNvbS5NYWxheXNpYS5MaW5rZG9vZC5FeHRl
bnNpb24wFgYIKoEckqpAZQEECgwIbGlua2Rvb2QwNwYIKoEckqpAZQIEKwwpQmVp
amluZyBWUlYgU29mdHdhcmUgQ29ycG9yYXRpb24gTGltaXRlZC4wCgYIKoZIzj0E
AwMDSQAwRgIhAL66GlNvgMxYNeZDeXpDf+kuk14PhUkGCjIeUszmTmLXAiEAkgtk
Hw+7veZRkF7USPfSNNgZtwYxIF2u1m8Rk9YOepE=
-----END CERTIFICATE-----
Certificate:
    Data:
        Version: 3 (0x2)
        Serial Number: 1 (0x1)
    Signature Algorithm: ecdsa-with-SHA512
        Issuer: O=Beijing VRV Software Corporation Limited., OU=Mobile Interconnection Center, CN=VRV ec-ssl Primary Certification Authority
        Validity
            Not Before: Oct 27 14:15:21 2017 GMT
            Not After : Oct 23 14:15:21 2035 GMT
        Subject: O=Beijing VRV Software Corporation Limited., OU=Mobile Interconnection Center, CN=VRV ec-ssl CA - G1
        Subject Public Key Info:
            Public Key Algorithm: id-ecPublicKey
                Public-Key: (256 bit)
                pub: 
                    04:cc:9d:41:44:15:4b:c5:39:6b:a4:91:08:93:d3:
                    3f:df:78:16:5b:45:7e:14:b7:66:f8:55:61:48:92:
                    ff:06:10:2e:df:51:ed:af:d0:69:a7:73:6f:79:a2:
                    d6:a5:9a:eb:f3:23:68:65:74:f9:13:d3:16:2d:71:
                    d8:c3:1b:c4:af
                ASN1 OID: prime256v1
        X509v3 extensions:
            X509v3 Subject Key Identifier: 
                70:7D:F3:FC:0B:22:59:80:DA:E5:DB:10:24:84:DC:D8:4F:42:AD:06
            X509v3 Authority Key Identifier: 
                keyid:B5:9D:9F:36:F0:BC:21:DE:49:69:DE:AE:D8:4F:BC:CC:41:5A:1C:66

            X509v3 Basic Constraints: critical
                CA:TRUE
            X509v3 Key Usage: critical
                Digital Signature, Certificate Sign, CRL Sign
    Signature Algorithm: ecdsa-with-SHA512
         30:46:02:21:00:f6:38:ac:98:ec:93:6b:2d:44:27:8c:e1:ee:
         45:35:80:61:1a:c7:26:30:7a:d4:83:5c:eb:e9:d3:36:cd:81:
         27:02:21:00:e4:2b:ff:9d:b0:1a:88:79:d0:60:98:f9:ad:98:
         b0:a8:01:b0:81:bd:64:25:a7:bb:37:3b:02:1f:2d:d2:5f:24
-----BEGIN CERTIFICATE-----
MIICXjCCAgOgAwIBAgIBATAKBggqhkjOPQQDBDCBkTEyMDAGA1UECgwpQmVpamlu
ZyBWUlYgU29mdHdhcmUgQ29ycG9yYXRpb24gTGltaXRlZC4xJjAkBgNVBAsMHU1v
YmlsZSBJbnRlcmNvbm5lY3Rpb24gQ2VudGVyMTMwMQYDVQQDDCpWUlYgZWMtc3Ns
IFByaW1hcnkgQ2VydGlmaWNhdGlvbiBBdXRob3JpdHkwHhcNMTcxMDI3MTQxNTIx
WhcNMzUxMDIzMTQxNTIxWjB5MTIwMAYDVQQKDClCZWlqaW5nIFZSViBTb2Z0d2Fy
ZSBDb3Jwb3JhdGlvbiBMaW1pdGVkLjEmMCQGA1UECwwdTW9iaWxlIEludGVyY29u
bmVjdGlvbiBDZW50ZXIxGzAZBgNVBAMMElZSViBlYy1zc2wgQ0EgLSBHMTBZMBMG
ByqGSM49AgEGCCqGSM49AwEHA0IABMydQUQVS8U5a6SRCJPTP994FltFfhS3ZvhV
YUiS/wYQLt9R7a/Qaadzb3mi1qWa6/MjaGV0+RPTFi1x2MMbxK+jYzBhMB0GA1Ud
DgQWBBRwffP8CyJZgNrl2xAkhNzYT0KtBjAfBgNVHSMEGDAWgBS1nZ828Lwh3klp
3q7YT7zMQVocZjAPBgNVHRMBAf8EBTADAQH/MA4GA1UdDwEB/wQEAwIBhjAKBggq
hkjOPQQDBANJADBGAiEA9jismOyTay1EJ4zh7kU1gGEaxyYwetSDXOvp0zbNgScC
IQDkK/+dsBqIedBgmPmtmLCoAbCBvWQlp7s3OwIfLdJfJA==
-----END CERTIFICATE-----
